target datalayout = "e-m:e-p270:32:32-p271:32:32-p272:64:64-i64:64-i128:128-f80:128-n8:16:32:64-S128"
target triple = "x86_64-pc-linux-gnu"

%class.Node = type <{ ptr, ptr, ptr, i32, i32, i32, i32, i32, i32, i32, [4 x i8] }>

@_ZN8TypeLong4ZEROE = external global ptr, align 8

; Function Attrs: mustprogress nounwind uwtable
define linkonce_odr hidden noundef ptr @_ZNK4Node2inEj(ptr noundef nonnull align 8 dereferenceable(52) %0, i32 noundef %1) #1 comdat align 2 {
  %3 = alloca ptr, align 8
  %4 = alloca i32, align 4
  store ptr %0, ptr %3, align 8
  store i32 %1, ptr %4, align 4
  %5 = load ptr, ptr %3, align 8
  %6 = getelementptr inbounds %class.Node, ptr %5, i32 0, i32 1
  %7 = load ptr, ptr %6, align 8
  %8 = load i32, ptr %4, align 4
  %9 = zext i32 %8 to i64
  %10 = getelementptr inbounds ptr, ptr %7, i64 %9
  %11 = load ptr, ptr %10, align 8
  ret ptr %11
}

; Function Attrs: mustprogress nounwind uwtable
define hidden noundef ptr @_ZNK8AndLNode5ValueEP8PhaseGVN(ptr noundef nonnull align 8 dereferenceable(52) %0, ptr noundef %1) unnamed_addr #1 align 2 {
  %3 = alloca ptr, align 8
  %4 = alloca ptr, align 8
  %5 = alloca ptr, align 8
  store ptr %0, ptr %4, align 8
  store ptr %1, ptr %5, align 8
  %6 = load ptr, ptr %4, align 8
  %7 = load ptr, ptr %5, align 8
  %8 = call noundef ptr @_ZNK4Node2inEj(ptr noundef nonnull align 8 dereferenceable(52) %6, i32 noundef 1)
  %9 = call noundef ptr @_ZNK4Node2inEj(ptr noundef nonnull align 8 dereferenceable(52) %6, i32 noundef 2)
  %10 = call noundef zeroext i1 @_ZN7MulNode35AndIL_shift_and_mask_is_always_zeroEP8PhaseGVNP4NodeS3_9BasicTypeb(ptr noundef %7, ptr noundef %8, ptr noundef %9, i8 noundef zeroext 11, i1 noundef zeroext true)
  br i1 %10, label %11, label %13

11:                                               ; preds = %2
  %12 = load ptr, ptr @_ZN8TypeLong4ZEROE, align 8
  store ptr %12, ptr %3, align 8
  br label %16

13:                                               ; preds = %2
  %14 = load ptr, ptr %5, align 8
  %15 = call noundef ptr @_ZNK7MulNode5ValueEP8PhaseGVN(ptr noundef nonnull align 8 dereferenceable(52) %6, ptr noundef %14)
  store ptr %15, ptr %3, align 8
  br label %16

16:                                               ; preds = %13, %11
  %17 = load ptr, ptr %3, align 8
  ret ptr %17
}