; Function Attrs: mustprogress nounwind uwtable
define hidden noundef ptr @_ZNK8AndLNode5ValueEP8PhaseGVN(ptr noundef nonnull align 8 dereferenceable(52) %0, ptr nocapture noundef readonly %1) unnamed_addr #0 align 2 {
  %3 = getelementptr inbounds i8, ptr %0, i64 8
  %4 = load ptr, ptr %3, align 8
  %5 = getelementptr inbounds i8, ptr %4, i64 8
  %6 = load ptr, ptr %5, align 8
  %7 = getelementptr inbounds i8, ptr %4, i64 16
  %8 = load ptr, ptr %7, align 8
  %9 = tail call noundef zeroext i1 @_ZN7MulNode35AndIL_shift_and_mask_is_always_zeroEP8PhaseGVNP4NodeS3_9BasicTypeb(ptr noundef %1, ptr noundef %6, ptr noundef %8, i8 noundef zeroext 11, i1 noundef zeroext true)
  br i1 %9, label %10, label %12

10:                                               ; preds = %2
  %11 = load ptr, ptr @_ZN8TypeLong4ZEROE, align 8
  br label %14

12:                                               ; preds = %2
  %13 = tail call noundef ptr @_ZNK7MulNode5ValueEP8PhaseGVN(ptr noundef nonnull align 8 dereferenceable(52) %0, ptr noundef %1)
  br label %14

14:                                               ; preds = %12, %10
  %.0 = phi ptr [ %11, %10 ], [ %13, %12 ]
  ret ptr %.0
}